Certificate:
    Data:
        Version: 3 (0x2)
        Serial Number:
            80:78:47:0d:ee:12:8b:f8:67:aa:ca:f6:17:20:26:4f
        Signature Algorithm: sha256WithRSAEncryption
        Issuer: CN=ChangeMe
        Validity
            Not Before: Jan 13 21:49:49 2022 GMT
            Not After : Jan 11 21:49:49 2032 GMT
        Subject: CN=server
        Subject Public Key Info:
            Public Key Algorithm: rsaEncryption
                RSA Public-Key: (2048 bit)
                Modulus:
                    00:be:7d:cc:62:74:c0:75:ba:00:d6:30:52:5e:5a:
                    ec:e1:f2:27:38:7d:09:79:46:19:16:e7:9a:a5:cd:
                    79:e8:da:4d:b7:be:7a:11:63:c4:8b:ed:ef:9c:37:
                    b6:a6:a5:0b:50:9c:76:b0:e5:ca:d4:d0:4e:cd:8a:
                    dc:69:23:c1:1c:08:15:f2:ea:df:94:55:71:b6:d3:
                    ed:a6:64:ec:96:44:2e:3e:1c:24:a2:b6:8a:7e:f0:
                    45:05:a6:cd:8f:b8:e4:b6:4c:98:f6:2a:f9:7d:88:
                    a0:c5:30:9b:03:6e:8a:a4:ad:86:44:ea:cb:36:a3:
                    7b:cc:bf:c6:2c:5b:0d:58:47:e4:80:35:f3:d9:e2:
                    5c:74:eb:e1:0e:b4:9c:2a:52:e9:c3:0b:73:2c:66:
                    4e:b9:62:d6:54:bb:da:eb:9b:d6:60:ca:61:e6:69:
                    4f:5e:b6:5d:36:ed:1e:c5:3e:ce:05:4e:04:f3:43:
                    9e:ad:a7:20:9d:f9:76:66:03:f0:0b:15:8f:54:e1:
                    b2:f2:1c:1a:5b:e9:f1:4b:f0:07:c1:b7:0e:bc:fc:
                    ac:2f:01:89:06:48:ce:bf:32:b0:8f:a3:02:fe:03:
                    18:4f:c2:75:f0:1c:b0:c0:07:9b:a2:6e:ff:ee:55:
                    62:fb:b4:82:b6:0e:93:cb:77:e8:64:fd:ec:2e:83:
                    32:5d
                Exponent: 65537 (0x10001)
        X509v3 extensions:
            X509v3 Basic Constraints: 
                CA:FALSE
            X509v3 Subject Key Identifier: 
                F8:90:40:5C:63:5F:43:E9:DC:67:26:16:36:22:2B:D5:AB:A9:EC:0E
            X509v3 Authority Key Identifier: 
                keyid:91:13:7D:07:6F:2F:A5:8D:FD:B8:3E:80:45:1E:E8:70:34:D5:8C:1D
                DirName:/CN=ChangeMe
                serial:70:C3:5C:AC:52:F0:76:7A:96:2E:05:CA:A6:A0:64:CB:80:DE:7B:28

            X509v3 Extended Key Usage: 
                TLS Web Server Authentication
            X509v3 Key Usage: 
                Digital Signature, Key Encipherment
            X509v3 Subject Alternative Name: 
                DNS:server
    Signature Algorithm: sha256WithRSAEncryption
         02:85:b7:63:07:17:4a:a4:db:9a:d7:6b:e9:25:69:26:98:53:
         21:3b:2d:c5:77:c9:61:94:23:b3:75:31:67:e1:73:64:c3:00:
         35:e3:c4:bc:70:53:8a:b2:f0:c7:3a:de:6b:fd:d8:7a:ed:08:
         41:2b:60:29:d2:09:ba:e7:19:da:02:f4:e3:96:5a:47:25:3c:
         d1:74:92:ca:37:da:f6:57:bf:86:d4:0c:de:2e:98:17:f5:9d:
         44:ff:bd:a3:ab:35:ae:d1:7c:4d:d7:0e:92:84:42:e9:20:a8:
         d2:b3:4b:99:e9:4f:f0:d1:84:a3:b5:c7:a7:2b:d1:95:9c:c9:
         eb:71:db:fb:88:57:5c:4c:3b:86:c0:ab:8f:d3:00:c1:a3:15:
         5b:a4:57:df:95:d4:3b:28:53:33:d0:12:89:11:f1:ea:bc:22:
         05:e1:32:d1:1d:08:fd:f9:26:cc:d5:60:a4:e4:70:5b:1d:fa:
         0e:2c:a8:db:ca:9e:43:1b:f8:d9:78:a5:a9:f7:7a:c3:54:90:
         c2:9a:a0:72:d8:09:0f:6c:29:7f:aa:21:9e:a2:74:52:aa:b3:
         a0:ca:d4:75:06:cc:0e:e2:65:63:82:dc:bc:bd:75:dd:51:09:
         9c:e8:14:29:ea:00:a6:61:d1:7f:99:17:e1:bc:c0:6e:a0:df:
         a6:64:68:1b
-----BEGIN CERTIFICATE-----
MIIDYjCCAkqgAwIBAgIRAIB4Rw3uEov4Z6rK9hcgJk8wDQYJKoZIhvcNAQELBQAw
EzERMA8GA1UEAwwIQ2hhbmdlTWUwHhcNMjIwMTEzMjE0OTQ5WhcNMzIwMTExMjE0
OTQ5WjARMQ8wDQYDVQQDDAZzZXJ2ZXIwggEiMA0GCSqGSIb3DQEBAQUAA4IBDwAw
ggEKAoIBAQC+fcxidMB1ugDWMFJeWuzh8ic4fQl5RhkW55qlzXno2k23vnoRY8SL
7e+cN7ampQtQnHaw5crU0E7NitxpI8EcCBXy6t+UVXG20+2mZOyWRC4+HCSitop+
8EUFps2PuOS2TJj2Kvl9iKDFMJsDboqkrYZE6ss2o3vMv8YsWw1YR+SANfPZ4lx0
6+EOtJwqUunDC3MsZk65YtZUu9rrm9ZgymHmaU9etl027R7FPs4FTgTzQ56tpyCd
+XZmA/ALFY9U4bLyHBpb6fFL8AfBtw68/KwvAYkGSM6/MrCPowL+AxhPwnXwHLDA
B5uibv/uVWL7tIK2DpPLd+hk/ewugzJdAgMBAAGjgbIwga8wCQYDVR0TBAIwADAd
BgNVHQ4EFgQU+JBAXGNfQ+ncZyYWNiIr1aup7A4wTgYDVR0jBEcwRYAUkRN9B28v
pY39uD6ARR7ocDTVjB2hF6QVMBMxETAPBgNVBAMMCENoYW5nZU1lghRww1ysUvB2
epYuBcqmoGTLgN57KDATBgNVHSUEDDAKBggrBgEFBQcDATALBgNVHQ8EBAMCBaAw
EQYDVR0RBAowCIIGc2VydmVyMA0GCSqGSIb3DQEBCwUAA4IBAQAChbdjBxdKpNua
12vpJWkmmFMhOy3Fd8lhlCOzdTFn4XNkwwA148S8cFOKsvDHOt5r/dh67QhBK2Ap
0gm65xnaAvTjllpHJTzRdJLKN9r2V7+G1AzeLpgX9Z1E/72jqzWu0XxN1w6ShELp
IKjSs0uZ6U/w0YSjtcenK9GVnMnrcdv7iFdcTDuGwKuP0wDBoxVbpFffldQ7KFMz
0BKJEfHqvCIF4TLRHQj9+SbM1WCk5HBbHfoOLKjbyp5DG/jZeKWp93rDVJDCmqBy
2AkPbCl/qiGeonRSqrOgytR1BswO4mVjgty8vXXdUQmc6BQp6gCmYdF/mRfhvMBu
oN+mZGgb
-----END CERTIFICATE-----
