Certificate:
    Data:
        Version: 3 (0x2)
        Serial Number:
            f1:82:7f:4e:d5:e3:71:bc:c6:f8:7f:e7:49:ce:99:58
        Signature Algorithm: sha256WithRSAEncryption
        Issuer: CN=ChangeMe
        Validity
            Not Before: Jan 13 21:49:49 2022 GMT
            Not After : Jan 11 21:49:49 2032 GMT
        Subject: CN=client
        Subject Public Key Info:
            Public Key Algorithm: rsaEncryption
                RSA Public-Key: (2048 bit)
                Modulus:
                    00:bd:d7:0b:b3:50:9c:62:f8:fb:bf:32:07:39:2c:
                    c1:8e:1c:da:8f:19:57:55:85:00:0a:f6:49:60:3c:
                    75:40:a9:af:f8:8f:c7:88:5c:44:1b:3d:3d:ca:b5:
                    d1:72:49:71:88:5d:90:79:41:0d:73:6c:02:59:f6:
                    1f:56:c8:55:f7:4f:64:9d:d5:0a:88:fa:c1:93:79:
                    04:93:28:98:d6:f9:71:11:75:5e:11:31:83:d0:34:
                    65:b4:8d:6a:ee:df:40:64:99:0a:3f:6a:43:6c:18:
                    e4:94:6b:85:77:8d:b1:6b:ca:f7:fc:e9:6e:8e:13:
                    a8:8b:9e:2a:e6:55:cb:a6:af:f2:43:2d:00:5d:9e:
                    77:cc:e5:61:af:79:95:a7:67:a3:21:1f:91:b7:95:
                    2d:52:02:df:87:20:a8:9e:ce:14:9d:2c:c2:c2:6e:
                    ea:26:b1:0d:b7:f1:f7:29:b1:df:0a:02:9b:eb:f4:
                    6a:d8:27:3d:ac:a4:01:f8:eb:57:33:ef:c3:d7:0a:
                    ae:1e:50:1a:d1:37:1c:1c:75:46:4a:f4:e2:19:01:
                    d2:c7:c6:ca:9f:45:7a:b3:3c:51:81:93:6e:a4:97:
                    9f:c7:f9:5c:f9:d9:51:3e:37:7e:d8:63:5c:ca:06:
                    c4:a7:cb:d5:08:7d:d0:da:06:6f:e5:bc:c1:71:fd:
                    4a:87
                Exponent: 65537 (0x10001)
        X509v3 extensions:
            X509v3 Basic Constraints: 
                CA:FALSE
            X509v3 Subject Key Identifier: 
                DA:7C:5C:8F:DF:D2:FD:CB:1B:89:A2:5B:94:1A:D0:55:7D:9E:9B:16
            X509v3 Authority Key Identifier: 
                keyid:91:13:7D:07:6F:2F:A5:8D:FD:B8:3E:80:45:1E:E8:70:34:D5:8C:1D
                DirName:/CN=ChangeMe
                serial:70:C3:5C:AC:52:F0:76:7A:96:2E:05:CA:A6:A0:64:CB:80:DE:7B:28

            X509v3 Extended Key Usage: 
                TLS Web Client Authentication
            X509v3 Key Usage: 
                Digital Signature
    Signature Algorithm: sha256WithRSAEncryption
         6f:68:5a:79:3c:7a:94:84:66:40:e9:1a:82:69:89:4e:c3:fc:
         2e:cc:23:90:23:32:b8:06:40:e1:01:da:15:d3:f8:0a:40:8c:
         c2:73:bf:1f:62:19:84:f8:6f:2f:88:f1:4d:5c:e1:5a:6d:65:
         d3:7f:48:8e:eb:5a:a7:50:de:f5:fd:ab:1d:14:23:b5:78:0a:
         2a:eb:b8:8c:8d:e3:10:da:41:36:97:14:ec:e8:2f:c9:e9:ea:
         db:1d:5d:f3:2e:0c:50:0d:ae:4b:13:f3:ac:5e:ce:80:b7:27:
         53:c3:5a:23:f6:c8:67:79:d8:91:37:e2:64:54:63:dc:25:24:
         c4:f6:e7:82:e7:3b:58:4b:a9:84:b4:ce:8e:9b:c4:4c:de:c7:
         a5:9d:8a:8e:e9:e6:71:84:b6:45:89:c2:4f:e2:a4:d8:f3:3d:
         3e:27:af:2d:0c:eb:6b:65:60:d2:42:aa:be:92:a0:5d:9e:4b:
         d1:37:b4:58:0b:74:6e:94:df:c5:9d:44:3a:7a:e7:e2:fe:3c:
         19:ad:43:88:11:2b:ec:c3:f6:c1:b5:e2:5d:2f:bf:98:dd:ec:
         aa:45:81:82:d7:4a:99:88:7c:cc:4d:88:ab:c1:de:6f:31:43:
         4c:c9:5c:5a:0f:0d:76:0a:30:5b:81:f8:20:a6:f3:63:04:9c:
         ba:de:8c:b9
-----BEGIN CERTIFICATE-----
MIIDTzCCAjegAwIBAgIRAPGCf07V43G8xvh/50nOmVgwDQYJKoZIhvcNAQELBQAw
EzERMA8GA1UEAwwIQ2hhbmdlTWUwHhcNMjIwMTEzMjE0OTQ5WhcNMzIwMTExMjE0
OTQ5WjARMQ8wDQYDVQQDDAZjbGllbnQwggEiMA0GCSqGSIb3DQEBAQUAA4IBDwAw
ggEKAoIBAQC91wuzUJxi+Pu/Mgc5LMGOHNqPGVdVhQAK9klgPHVAqa/4j8eIXEQb
PT3KtdFySXGIXZB5QQ1zbAJZ9h9WyFX3T2Sd1QqI+sGTeQSTKJjW+XERdV4RMYPQ
NGW0jWru30BkmQo/akNsGOSUa4V3jbFryvf86W6OE6iLnirmVcumr/JDLQBdnnfM
5WGveZWnZ6MhH5G3lS1SAt+HIKiezhSdLMLCbuomsQ238fcpsd8KApvr9GrYJz2s
pAH461cz78PXCq4eUBrRNxwcdUZK9OIZAdLHxsqfRXqzPFGBk26kl5/H+Vz52VE+
N37YY1zKBsSny9UIfdDaBm/lvMFx/UqHAgMBAAGjgZ8wgZwwCQYDVR0TBAIwADAd
BgNVHQ4EFgQU2nxcj9/S/csbiaJblBrQVX2emxYwTgYDVR0jBEcwRYAUkRN9B28v
pY39uD6ARR7ocDTVjB2hF6QVMBMxETAPBgNVBAMMCENoYW5nZU1lghRww1ysUvB2
epYuBcqmoGTLgN57KDATBgNVHSUEDDAKBggrBgEFBQcDAjALBgNVHQ8EBAMCB4Aw
DQYJKoZIhvcNAQELBQADggEBAG9oWnk8epSEZkDpGoJpiU7D/C7MI5AjMrgGQOEB
2hXT+ApAjMJzvx9iGYT4by+I8U1c4VptZdN/SI7rWqdQ3vX9qx0UI7V4CirruIyN
4xDaQTaXFOzoL8np6tsdXfMuDFANrksT86xezoC3J1PDWiP2yGd52JE34mRUY9wl
JMT254LnO1hLqYS0zo6bxEzex6Wdio7p5nGEtkWJwk/ipNjzPT4nry0M62tlYNJC
qr6SoF2eS9E3tFgLdG6U38WdRDp65+L+PBmtQ4gRK+zD9sG14l0vv5jd7KpFgYLX
SpmIfMxNiKvB3m8xQ0zJXFoPDXYKMFuB+CCm82MEnLrejLk=
-----END CERTIFICATE-----
